; Function Attrs: mustprogress uwtable
define i32 @uspoof_getCheckResultRestrictionLevel_75(ptr noundef %checkResult, ptr noundef nonnull %status) local_unnamed_addr #0 {
entry:
  %call = tail call noundef ptr @_ZN6icu_7511CheckResult12validateThisEPK17USpoofCheckResultR10UErrorCode(ptr noundef %checkResult, ptr noundef nonnull align 4 dereferenceable(4) %status)
  %0 = load i32, ptr %status, align 4
  %cmp.i = icmp slt i32 %0, 1
  br i1 %cmp.i, label %if.end, label %return

if.end:                                           ; preds = %entry
  %fRestrictionLevel = getelementptr inbounds i8, ptr %call, i64 216
  %1 = load i32, ptr %fRestrictionLevel, align 8
  br label %return

return:                                           ; preds = %entry, %if.end
  %retval.0 = phi i32 [ %1, %if.end ], [ 1610612736, %entry ]
  ret i32 %retval.0
}